target datalayout = "e-m:e-p270:32:32-p271:32:32-p272:64:64-i64:64-i128:128-f80:128-n8:16:32:64-S128"
target triple = "x86_64-pc-linux-gnu"

%struct.SDL_HIDAPI_Device = type { ptr, ptr, ptr, ptr, i16, i16, i16, ptr, %struct.SDL_GUID, i32, i32, i32, i32, i16, i16, i8, i32, i32, i32, ptr, ptr, ptr, ptr, %struct.SDL_AtomicInt, i32, ptr, i8, i8, i8, ptr, i32, ptr, ptr }
%struct.SDL_GUID = type { [16 x i8] }
%struct.SDL_AtomicInt = type { i32 }

; Function Attrs: nounwind uwtable
define internal zeroext i1 @HIDAPI_DriverGIP_IsSupportedDevice(ptr noundef %0, ptr noundef %1, i32 noundef %2, i16 noundef zeroext %3, i16 noundef zeroext %4, i16 noundef zeroext %5, i32 noundef %6, i32 noundef %7, i32 noundef %8, i32 noundef %9) #0 {
  %11 = alloca i1, align 1
  %12 = alloca ptr, align 8
  %13 = alloca ptr, align 8
  %14 = alloca i32, align 4
  %15 = alloca i16, align 2
  %16 = alloca i16, align 2
  %17 = alloca i16, align 2
  %18 = alloca i32, align 4
  %19 = alloca i32, align 4
  %20 = alloca i32, align 4
  %21 = alloca i32, align 4
  store ptr %0, ptr %12, align 8
  store ptr %1, ptr %13, align 8
  store i32 %2, ptr %14, align 4
  store i16 %3, ptr %15, align 2
  store i16 %4, ptr %16, align 2
  store i16 %5, ptr %17, align 2
  store i32 %6, ptr %18, align 4
  store i32 %7, ptr %19, align 4
  store i32 %8, ptr %20, align 4
  store i32 %9, ptr %21, align 4
  %22 = load ptr, ptr %12, align 8
  %23 = icmp ne ptr %22, null
  br i1 %23, label %24, label %30

24:                                               ; preds = %10
  %25 = load ptr, ptr %12, align 8
  %26 = getelementptr inbounds nuw %struct.SDL_HIDAPI_Device, ptr %25, i32 0, i32 15
  %27 = load i8, ptr %26, align 4, !range !3, !noundef !4
  %28 = trunc i8 %27 to i1
  br i1 %28, label %29, label %30

29:                                               ; preds = %24
  store i1 false, ptr %11, align 1
  br label %33

30:                                               ; preds = %24, %10
  %31 = load i32, ptr %14, align 4
  %32 = icmp eq i32 %31, 3
  store i1 %32, ptr %11, align 1
  br label %33

33:                                               ; preds = %30, %29
  %34 = load i1, ptr %11, align 1
  ret i1 %34
}