; Function Attrs: mustprogress nofree norecurse nosync nounwind willreturn memory(argmem: read) uwtable
define internal noundef zeroext i1 @HIDAPI_DriverGIP_IsSupportedDevice(ptr noundef readonly captures(address_is_null) %0, ptr readnone captures(none) %1, i32 noundef %2, i16 zeroext %3, i16 zeroext %4, i16 zeroext %5, i32 %6, i32 %7, i32 %8, i32 %9) #1 {
  %.not = icmp eq ptr %0, null
  br i1 %.not, label %15, label %11

11:                                               ; preds = %10
  %12 = getelementptr inbounds nuw i8, ptr %0, i64 84
  %13 = load i8, ptr %12, align 4, !range !3, !noundef !4
  %14 = trunc nuw i8 %13 to i1
  br i1 %14, label %17, label %15

15:                                               ; preds = %11, %10
  %16 = icmp eq i32 %2, 3
  br label %17

17:                                               ; preds = %11, %15
  %.0 = phi i1 [ %16, %15 ], [ false, %11 ]
  ret i1 %.0
}